; Function Attrs: nounwind uwtable
define hidden void @mpd_print(ptr noundef %0) local_unnamed_addr #0 {
  %2 = alloca ptr, align 8
  call void @llvm.lifetime.start.p0(i64 8, ptr nonnull %2) #18
  %3 = call fastcc i64 @_mpd_to_string(ptr noundef nonnull %2, ptr noundef %0, i32 noundef 3, i64 noundef 1)
  %4 = load ptr, ptr %2, align 8, !tbaa !26
  call void @llvm.lifetime.end.p0(i64 8, ptr nonnull %2) #18
  %.not = icmp eq ptr %4, null
  br i1 %.not, label %7, label %5

5:                                                ; preds = %1
  %puts = tail call i32 @puts(ptr nonnull dereferenceable(1) %4)
  %6 = load ptr, ptr @mpd_free, align 8, !tbaa !60
  tail call void %6(ptr noundef nonnull %4) #18
  br label %10

7:                                                ; preds = %1
  %8 = load ptr, ptr @stderr, align 8, !tbaa !70
  %9 = tail call i64 @fwrite(ptr nonnull @.str.15, i64 25, i64 1, ptr %8) #22
  br label %10

10:                                               ; preds = %7, %5
  ret void
}